target datalayout = "e-m:e-p270:32:32-p271:32:32-p272:64:64-i64:64-i128:128-f80:128-n8:16:32:64-S128"
target triple = "x86_64-unknown-linux-gnu"

%"struct.std::atomic" = type { %"struct.std::__atomic_base" }
%"struct.std::__atomic_base" = type { i8 }
%"class.grpc_core::Call" = type { ptr, %"class.grpc_core::RefCountedPtr", ptr, %"struct.std::atomic.0", ptr, %"class.grpc_core::Timestamp", i8, i8, i32, %"class.grpc_core::CompressionAlgorithmSet", i32, %"class.absl::lts_20230802::Mutex", %"class.grpc_core::Slice", double }
%"class.grpc_core::RefCountedPtr" = type { ptr }
%"struct.std::atomic.0" = type { %"struct.std::__atomic_base.1" }
%"struct.std::__atomic_base.1" = type { ptr }
%"class.grpc_core::Timestamp" = type { i64 }
%"class.grpc_core::CompressionAlgorithmSet" = type { %"class.grpc_core::BitSet" }
%"class.grpc_core::BitSet" = type { [1 x i8] }
%"class.absl::lts_20230802::Mutex" = type { %"struct.std::atomic.2" }
%"struct.std::atomic.2" = type { %"struct.std::__atomic_base.3" }
%"struct.std::__atomic_base.3" = type { i64 }
%"class.grpc_core::Slice" = type { %"class.grpc_core::slice_detail::BaseSlice" }
%"class.grpc_core::slice_detail::BaseSlice" = type { %struct.grpc_slice }
%struct.grpc_slice = type { ptr, %"union.grpc_slice::grpc_slice_data" }
%"union.grpc_slice::grpc_slice_data" = type { %"struct.grpc_slice::grpc_slice_data::grpc_slice_refcounted", [8 x i8] }
%"struct.grpc_slice::grpc_slice_data::grpc_slice_refcounted" = type { i64, ptr }
%"class.absl::lts_20230802::Status" = type { i64 }
%"struct.std::atomic.4" = type { %"struct.std::__atomic_base.5" }
%"struct.std::__atomic_base.5" = type { i64 }
%struct.grpc_transport_stream_op_batch_payload = type { %struct.anon.122, %struct.anon.123, %struct.anon.124, %struct.anon.125, %struct.anon.126, %struct.anon.127, %struct.anon.128, ptr }
%struct.anon.122 = type { ptr }
%struct.anon.123 = type { ptr, ptr }
%struct.anon.124 = type <{ ptr, i32, i8, [3 x i8] }>
%struct.anon.125 = type { ptr, ptr, ptr }
%struct.anon.126 = type { ptr, ptr, ptr, ptr }
%struct.anon.127 = type { ptr, ptr, ptr }
%struct.anon.128 = type <{ %"class.absl::lts_20230802::Status", i8, [7 x i8] }>
%struct.grpc_call_stats = type { %struct.grpc_transport_stream_stats, %struct.gpr_timespec }
%struct.grpc_transport_stream_stats = type { %struct.grpc_transport_one_way_stats, %struct.grpc_transport_one_way_stats, %struct.gpr_timespec }
%struct.grpc_transport_one_way_stats = type { i64, i64, i64 }
%struct.gpr_timespec = type { i64, i32, i32 }
%struct.grpc_call_context_element = type { ptr, ptr }
%"class.grpc_core::Orphanable" = type { ptr }
%struct.grpc_cq_completion = type { %"class.grpc_core::ManualConstructor", ptr, ptr, ptr, i64 }
%"class.grpc_core::ManualConstructor" = type { [8 x i8] }
%"class.grpc_core::PromiseBasedCall" = type { %"class.grpc_core::Call", %"class.grpc_core::Party", %"class.grpc_event_engine::experimental::EventEngine::Closure", %"class.grpc_core::CallContext", %"struct.std::atomic.4", [8 x %struct.grpc_call_context_element], ptr, [6 x %"union.grpc_core::PromiseBasedCall::CompletionInfo"], %struct.grpc_call_stats, %"class.grpc_core::Slice", i32, %"class.grpc_core::CallFinalization", %"class.absl::lts_20230802::Mutex", %"class.grpc_core::Timestamp", %"struct.grpc_event_engine::experimental::EventEngine::TaskHandle", %"class.grpc_core::ExternallyObservableLatch", %"struct.std::atomic.274", %"struct.std::atomic", %"class.grpc_core::IntraActivityWaiter", ptr, %struct.grpc_transport_stream_op_batch_payload }
%"class.grpc_core::Party" = type { %"class.grpc_core::Activity", %"class.grpc_core::Wakeable", %"class.grpc_core::PartySyncUsingAtomics", ptr, i8, [16 x %"struct.std::atomic.270"] }
%"class.grpc_core::Activity" = type { %"class.grpc_core::Orphanable" }
%"class.grpc_core::Wakeable" = type { ptr }
%"class.grpc_core::PartySyncUsingAtomics" = type { %"struct.std::atomic.4" }
%"struct.std::atomic.270" = type { %"struct.std::__atomic_base.271" }
%"struct.std::__atomic_base.271" = type { ptr }
%"class.grpc_event_engine::experimental::EventEngine::Closure" = type { ptr }
%"class.grpc_core::CallContext" = type <{ %struct.grpc_call_stats, ptr, double, i8, [7 x i8] }>
%"union.grpc_core::PromiseBasedCall::CompletionInfo" = type { %struct.grpc_cq_completion }
%"class.grpc_core::CallFinalization" = type { ptr }
%"struct.grpc_event_engine::experimental::EventEngine::TaskHandle" = type { [2 x i64] }
%"class.grpc_core::ExternallyObservableLatch" = type { %"struct.std::atomic", %"class.grpc_core::IntraActivityWaiter" }
%"struct.std::atomic.274" = type { %"struct.std::__atomic_base.275" }
%"struct.std::__atomic_base.275" = type { i8 }
%"class.grpc_core::IntraActivityWaiter" = type { i16 }
%"class.grpc_core::PromiseBasedCall::Completion" = type { i8 }

; Function Attrs: mustprogress nounwind uwtable
define linkonce_odr noundef ptr @_ZN9grpc_core16PromiseBasedCall2cqEv(ptr noundef nonnull align 8 dereferenceable(1096) %this) #5 comdat align 2 {
entry:
  %this.addr = alloca ptr, align 8
  store ptr %this, ptr %this.addr, align 8
  %this1 = load ptr, ptr %this.addr, align 8
  %cq_ = getelementptr inbounds %"class.grpc_core::PromiseBasedCall", ptr %this1, i32 0, i32 6
  %0 = load ptr, ptr %cq_, align 8
  ret ptr %0
}

; Function Attrs: mustprogress uwtable
define noundef i32 @_ZN9grpc_core22ClientPromiseBasedCall10StartBatchEPK7grpc_opmPvb(ptr noundef nonnull align 8 dereferenceable(1264) %this, ptr noundef %ops, i64 noundef %nops, ptr noundef %notify_tag, i1 noundef zeroext %is_notify_tag_closure) unnamed_addr #4 align 2 personality ptr @__gxx_personality_v0 {
entry:
  %retval = alloca i32, align 4
  %this.addr = alloca ptr, align 8
  %ops.addr = alloca ptr, align 8
  %nops.addr = alloca i64, align 8
  %notify_tag.addr = alloca ptr, align 8
  %is_notify_tag_closure.addr = alloca i8, align 1
  %validation_result = alloca i32, align 4
  %completion = alloca %"class.grpc_core::PromiseBasedCall::Completion", align 1
  %exn.slot = alloca ptr, align 8
  %ehselector.slot = alloca i32, align 4
  store ptr %this, ptr %this.addr, align 8
  store ptr %ops, ptr %ops.addr, align 8
  store i64 %nops, ptr %nops.addr, align 8
  store ptr %notify_tag, ptr %notify_tag.addr, align 8
  %frombool = zext i1 %is_notify_tag_closure to i8
  store i8 %frombool, ptr %is_notify_tag_closure.addr, align 1
  %this1 = load ptr, ptr %this.addr, align 8
  %0 = load i64, ptr %nops.addr, align 8
  %cmp = icmp eq i64 %0, 0
  br i1 %cmp, label %if.then, label %if.end

if.then:                                          ; preds = %entry
  %call = call noundef ptr @_ZN9grpc_core16PromiseBasedCall2cqEv(ptr noundef nonnull align 8 dereferenceable(1096) %this1)
  %1 = load ptr, ptr %notify_tag.addr, align 8
  %2 = load i8, ptr %is_notify_tag_closure.addr, align 1
  %tobool = trunc i8 %2 to i1
  call void @_ZN9grpc_core12_GLOBAL__N_116EndOpImmediatelyEP21grpc_completion_queuePvb(ptr noundef %call, ptr noundef %1, i1 noundef zeroext %tobool)
  store i32 0, ptr %retval, align 4
  br label %return

if.end:                                           ; preds = %entry
  %3 = load ptr, ptr %ops.addr, align 8
  %4 = load i64, ptr %nops.addr, align 8
  %call2 = call noundef i32 @_ZNK9grpc_core22ClientPromiseBasedCall13ValidateBatchEPK7grpc_opm(ptr noundef nonnull align 8 dereferenceable(1264) %this1, ptr noundef %3, i64 noundef %4)
  store i32 %call2, ptr %validation_result, align 4
  %5 = load i32, ptr %validation_result, align 4
  %cmp3 = icmp ne i32 %5, 0
  br i1 %cmp3, label %if.then4, label %if.end5

if.then4:                                         ; preds = %if.end
  %6 = load i32, ptr %validation_result, align 4
  store i32 %6, ptr %retval, align 4
  br label %return

if.end5:                                          ; preds = %if.end
  %7 = load ptr, ptr %notify_tag.addr, align 8
  %8 = load i8, ptr %is_notify_tag_closure.addr, align 1
  %tobool6 = trunc i8 %8 to i1
  %9 = load ptr, ptr %ops.addr, align 8
  call void @_ZN9grpc_core16PromiseBasedCall15StartCompletionEPvbPK7grpc_op(ptr sret(%"class.grpc_core::PromiseBasedCall::Completion") align 1 %completion, ptr noundef nonnull align 8 dereferenceable(1096) %this1, ptr noundef %7, i1 noundef zeroext %tobool6, ptr noundef %9)
  %10 = load ptr, ptr %ops.addr, align 8
  %11 = load i64, ptr %nops.addr, align 8
  invoke void @_ZN9grpc_core22ClientPromiseBasedCall11CommitBatchEPK7grpc_opmRKNS_16PromiseBasedCall10CompletionE(ptr noundef nonnull align 8 dereferenceable(1264) %this1, ptr noundef %10, i64 noundef %11, ptr noundef nonnull align 1 dereferenceable(1) %completion)
          to label %invoke.cont unwind label %lpad

invoke.cont:                                      ; preds = %if.end5
  invoke void @_ZN9grpc_core16PromiseBasedCall20FinishOpOnCompletionEPNS0_10CompletionENS0_9PendingOpE(ptr noundef nonnull align 8 dereferenceable(1096) %this1, ptr noundef %completion, i32 noundef 0)
          to label %invoke.cont7 unwind label %lpad

invoke.cont7:                                     ; preds = %invoke.cont
  store i32 0, ptr %retval, align 4
  call void @_ZN9grpc_core16PromiseBasedCall10CompletionD2Ev(ptr noundef nonnull align 1 dereferenceable(1) %completion) #3
  br label %return

lpad:                                             ; preds = %invoke.cont, %if.end5
  %12 = landingpad { ptr, i32 }
          cleanup
  %13 = extractvalue { ptr, i32 } %12, 0
  store ptr %13, ptr %exn.slot, align 8
  %14 = extractvalue { ptr, i32 } %12, 1
  store i32 %14, ptr %ehselector.slot, align 4
  call void @_ZN9grpc_core16PromiseBasedCall10CompletionD2Ev(ptr noundef nonnull align 1 dereferenceable(1) %completion) #3
  br label %eh.resume

return:                                           ; preds = %invoke.cont7, %if.then4, %if.then
  %15 = load i32, ptr %retval, align 4
  ret i32 %15

eh.resume:                                        ; preds = %lpad
  %exn = load ptr, ptr %exn.slot, align 8
  %sel = load i32, ptr %ehselector.slot, align 4
  %lpad.val = insertvalue { ptr, i32 } poison, ptr %exn, 0
  %lpad.val8 = insertvalue { ptr, i32 } %lpad.val, i32 %sel, 1
  resume { ptr, i32 } %lpad.val8
}